(lp1
(lp2
(lp3
F0.60999999999999999
aF0.23000000000000001
aF0.38
aF0.34999999999999998
aF0.39000000000000001
aF0.40999999999999998
aF0.90000000000000002
aF0.11
aF0.050000000000000003
aaF-9.7799999999999994
aa(lp4
(lp5
F0.60999999999999999
aF0.68999999999999995
aF0.38
aF0.34999999999999998
aF0.39000000000000001
aF0.40999999999999998
aF0.90000000000000002
aF0.11
aF0.050000000000000003
aaF-20.669999999999998
aa(lp6
(lp7
F0.20999999999999999
aF0.82999999999999996
aF0.88
aF0.34999999999999998
aF0.39000000000000001
aF0.40999999999999998
aF0.90000000000000002
aF0.11
aF0.050000000000000003
aaF-30.77
aa(lp8
(lp9
F0.65000000000000002
aF0.23000000000000001
aF0.38
aF0.34999999999999998
aF0.39000000000000001
aF0.40999999999999998
aF0.90000000000000002
aF0.11
aF0.050000000000000003
aaF-23.389999999999997
aa(lp10
(lp11
F0.60999999999999999
aF0.23000000000000001
aF0.38
aF0.34999999999999998
aF0.39000000000000001
aF0.40999999999999998
aF0.90000000000000002
aF0.11
aF0.050000000000000003
aaF-9.7799999999999994
aa(lp12
(lp13
F0.58999999999999997
aF0.52000000000000002
aF0.87
aF0.68000000000000005
aF0.050000000000000003
aF0.46000000000000002
aF0.51000000000000001
aF0.40999999999999998
aF0.23999999999999999
aaF-28.829999999999998
aa(lp14
(lp15
F0.58999999999999997
aF0.52000000000000002
aF0.23999999999999999
aF0.13
aF0.34999999999999998
aF0.38
aF0.84999999999999998
aF0.40999999999999998
aF0.23999999999999999
aaF-19.859999999999999
aa(lp16
(lp17
F0.58999999999999997
aF0.52000000000000002
aF0.87
aF0.13
aF0.34999999999999998
aF0.38
aF0.84999999999999998
aF0.17000000000000001
aF0.5
aaF-21.829999999999998
aa(lp18
(lp19
F0.60999999999999999
aF0.23000000000000001
aF0.38
aF0.34999999999999998
aF0.91000000000000003
aF0.40999999999999998
aF0.90000000000000002
aF0.11
aF0.050000000000000003
aaF-20.419999999999998
aa(lp20
(lp21
F0.60999999999999999
aF0.23000000000000001
aF0.38
aF0.34999999999999998
aF0.39000000000000001
aF0.40999999999999998
aF0.90000000000000002
aF0.11
aF0.050000000000000003
aaI0
aa(lp22
(lp23
F0.60999999999999999
aF0.23000000000000001
aF0.38
aF0.34999999999999998
aF0.39000000000000001
aF0.40999999999999998
aF0.90000000000000002
aF0.11
aF0.050000000000000003
aaI0
aa(lp24
(lp25
F0.58999999999999997
aF0.82999999999999996
aF0.88
aF0.68000000000000005
aF0.050000000000000003
aF0.46000000000000002
aF0.51000000000000001
aF0.40999999999999998
aF0.23999999999999999
aaI0
aa(lp26
(lp27
F0.60999999999999999
aF0.23000000000000001
aF0.38
aF0.34999999999999998
aF0.34999999999999998
aF0.38
aF0.84999999999999998
aF0.17000000000000001
aF0.5
aaI0
aa(lp28
(lp29
F0.20999999999999999
aF0.82999999999999996
aF0.88
aF0.68000000000000005
aF0.050000000000000003
aF0.46000000000000002
aF0.51000000000000001
aF0.40999999999999998
aF0.23999999999999999
aaI0
aa(lp30
(lp31
F0.60999999999999999
aF0.23000000000000001
aF0.38
aF0.5
aF0.39000000000000001
aF0.40999999999999998
aF0.90000000000000002
aF0.11
aF0.050000000000000003
aaI0
aa.