(lp1
(lp2
(lp3
F0.70917710126211997
aF2.1687824542948033
aF2.5109349375813941
aF1.6259085718467519
aF2.9731827705925444
aF2.7012632744521672
aaI0
aa(lp4
(lp5
F1.7338382932321534
aF2.3416726058147419
aF0.23733593920908058
aF1.9700141210724909
aF2.3019192832362583
aF0.84750947285404143
aaI0
aa(lp6
(lp7
F1.0675081148535766
aF0.78265905909313038
aF0.64825939852360559
aF1.8272193678102417
aF1.5128472444119763
aF1.598469109841554
aaI0
aa(lp8
(lp9
F1.7609291901146249
aF1.2147159236335912
aF0.23955850840250581
aF0.39398419854569622
aF0.87525670336938144
aF1.9780515514836712
aaI0
aa(lp10
(lp11
F2.3555480031821019
aF1.0223886821313757
aF1.2204080830865087
aF0.49805630438904025
aF1.3207913596112455
aF2.6650624110948913
aaI0
aa(lp12
(lp13
F1.8292722162458983
aF2.3167354173248764
aF1.7797836271253522
aF1.4036259066148769
aF0.77381068456799673
aF2.800962815814986
aaI0
aa(lp14
(lp15
F2.4431920963407561
aF0.79318627429223054
aF2.874736723769959
aF2.4353591843576972
aF1.3844171076566769
aF2.2138356915335424
aaI0
aa(lp16
(lp17
F0.69556071815486531
aF1.4135098919190427
aF0.14403463028675767
aF1.4393043368516205
aF2.0952296635660774
aF1.0627535547942168
aaI0
aa(lp18
(lp19
F2.6258413577128987
aF0.71001309300090154
aF1.9851288933677875
aF1.922480980209246
aF0.78267423202418063
aF1.5362988967488254
aaI0
aa(lp20
(lp21
F0.15443315269677016
aF0.28384011376281015
aF2.981384117210836
aF1.8518629407783895
aF0.061738854369518648
aF1.0965438817886435
aaI0
aa(lp22
(lp23
F1.0650527581125893
aF2.5655404967369067
aF2.2905953604159484
aF2.7761497370630952
aF1.2461048650007502
aF0.096263954483982728
aaI0
aa(lp24
(lp25
F0.9674814867613809
aF1.0548726213444786
aF1.4920294181741069
aF1.5635035823589329
aF2.1193466890741171
aF1.2803487931055275
aaI0
aa(lp26
(lp27
F1.3399632341927714
aF2.2244487877168604
aF0.83509463936985118
aF2.0957267659368464
aF1.4974144869508199
aF0.031155771962481205
aaI0
aa(lp28
(lp29
F0.38352205671697126
aF2.1432130244826508
aF1.6208295227768286
aF1.7163738055312161
aF1.1379995898556774
aF2.7795256175530865
aaI0
aa(lp30
(lp31
F2.3701915317818827
aF2.7476856144891046
aF1.9128773714081704
aF1.5334063633866735
aF0.44457724847226887
aF2.9004088854318986
aaI0
aa(lp32
(lp33
F1.7371255874171363
aF2.2656272845740193
aF0.91318238188075485
aF0.23693741217529463
aF0.27398170519472442
aF2.5799788260374195
aaI0
aa(lp34
(lp35
F1.0742218982485676
aF0.81296731707963499
aF0.76490258207636108
aF0.3790618570418256
aF2.0966058990522751
aF2.9466953104032392
aaI0
aa(lp36
(lp37
F0.67939818417653186
aF2.7511034120299556
aF0.15448616585633335
aF0.66174816940585313
aF2.6116545109198883
aF2.5917250790483921
aaI0
aa(lp38
(lp39
F2.8594422166927349
aF2.9891532493955344
aF2.9102254987508873
aF0.82078679167204316
aF1.7724963901900788
aF2.8456445811128188
aaI0
aa(lp40
(lp41
F1.9111740754345656
aF1.7247093506313793
aF2.1057926202948143
aF0.0038600931312157138
aF0.77041853633944712
aF2.6751948446110454
aaI0
aa(lp42
(lp43
F1.3711792204323416
aF1.6446180924380691
aF2.7805885344805081
aF0.5146859230517522
aF0.38538679525011366
aF1.9527994408632212
aaI0
aa(lp44
(lp45
F0.26414917513423652
aF1.2280733768154983
aF0.28643471706831125
aF2.6383995727508331
aF1.1360342129628593
aF2.8369665172722671
aaI0
aa(lp46
(lp47
F0.97230484138086004
aF2.8059329544590428
aF0.044786840301621389
aF2.8861012297089217
aF1.4625452079652115
aF1.2100305335051207
aaI0
aa(lp48
(lp49
F1.4894009518872853
aF0.30438198208611655
aF2.2314281318658171
aF0.84487695539943641
aF1.4072763160401649
aF0.51799100506921136
aaI0
aa(lp50
(lp51
F2.2364134433997771
aF1.6041602058483515
aF1.5885558165494369
aF2.0688349803233308
aF2.139656848025417
aF1.6752694580205474
aaI0
aa(lp52
(lp53
F1.2493767131081435
aF0.62812280016854427
aF0.81819176796737658
aF2.9358105954281011
aF2.0718921597895124
aF1.2840838548873117
aaI0
aa(lp54
(lp55
F0.043772078899818267
aF1.104773953160338
aF0.046180744000347773
aF1.6667085942359252
aF2.2351851312991169
aF2.1996454703296235
aaI0
aa(lp56
(lp57
F0.073968614156110002
aF0.54407383299773604
aF0.45182367246404453
aF2.2230582220584445
aF0.13426935496016545
aF0.78961348172736412
aaI0
aa(lp58
(lp59
F1.9110727527850031
aF0.71923307763507904
aF2.1601119781505287
aF1.0224210060157122
aF1.8286286911413243
aF0.14461768712976319
aaI0
aa(lp60
(lp61
F0.18222454759455964
aF1.3118620904801042
aF2.1730411191733312
aF0.3691255818837087
aF2.743895457201325
aF2.0925939209831674
aaI0
aa(lp62
(lp63
F2.6339489542411032
aF0.40617399025164214
aF0.22882817443776893
aF2.0080067644698625
aF1.4499935262519323
aF2.1849892337196604
aaI0
aa(lp64
(lp65
F0.18464917722856433
aF0.38633885502454823
aF2.1069575246454955
aF1.1050307013517653
aF1.7063976753368282
aF0.029031724284945826
aaI0
aa(lp66
(lp67
F2.6302803334722631
aF1.7879836135770404
aF2.0053966746366489
aF1.5605646545174223
aF1.4983120817523159
aF0.9933934220063444
aaI0
aa(lp68
(lp69
F0.59633306104846151
aF1.7167926995778298
aF1.7706413567907666
aF1.3741608744549283
aF2.6335359875575053
aF1.8631485447539329
aaI0
aa(lp70
(lp71
F1.3532819812679966
aF1.3692741070123189
aF2.9634514635464306
aF2.4170734381746062
aF1.1924231032991348
aF1.3488999331394382
aaI0
aa(lp72
(lp73
F2.1027753858078526
aF1.3982942687794271
aF1.9561504280127986
aF1.4716734451667934
aF2.5348149556860093
aF2.3931804148397551
aaI0
aa(lp74
(lp75
F0.59422077712338595
aF0.72892496993137157
aF1.4456908465861682
aF0.93570922128176404
aF1.7874223556210667
aF1.0982537393794649
aaI0
aa(lp76
(lp77
F1.1507611729322029
aF1.9402026280815026
aF2.6925408156272019
aF1.744137095373951
aF1.2136960867305913
aF1.0993179061505902
aaI0
aa(lp78
(lp79
F1.1622968046652058
aF1.3351548430849915
aF0.23099771564489879
aF1.3716522667511559
aF2.7938152437703727
aF0.13804333456480233
aaI0
aa(lp80
(lp81
F0.30292553018883095
aF0.63029083299901689
aF2.1016981341625871
aF0.68525365573217811
aF1.5344835628114071
aF0.57998781911889563
aaI0
aa(lp82
(lp83
F1.2385196861278835
aF2.221165228645634
aF1.8267649715133734
aF2.4279791073863155
aF2.6800774336628854
aF0.033449785127985465
aaI0
aa(lp84
(lp85
F2.160956455173678
aF1.1473674313076765
aF2.1884494327115362
aF2.7993068062099149
aF0.10239327343083604
aF2.4204708858472777
aaI0
aa(lp86
(lp87
F2.3316330291248883
aF2.3935737477533729
aF0.40757355506829962
aF2.4207737222370178
aF2.7717706262395261
aF0.070218941269787227
aaI0
aa(lp88
(lp89
F2.0662716445807501
aF2.164286369346009
aF1.5150764947662776
aF2.3769030030112521
aF0.34076649465289799
aF0.64345681944449151
aaI0
aa(lp90
(lp91
F1.3603945870129694
aF0.2528006781221076
aF0.31389638269581754
aF0.64321749592010313
aF0.96678611294391803
aF0.054873998303228588
aaI0
aa(lp92
(lp93
F2.2095208919446025
aF0.68262541505197072
aF0.69246734339148797
aF2.8958002647203585
aF2.876380132911204
aF1.2224769484079752
aaI0
aa(lp94
(lp95
F1.4970704537430393
aF1.199929127910464
aF1.7547855276363404
aF1.0058653684880459
aF2.3880943645420665
aF1.4322835509973006
aaI0
aa(lp96
(lp97
F0.57115231669346245
aF2.6955026867945002
aF0.56292992014912357
aF2.6938799479626674
aF2.7872921244766591
aF2.6833733487095
aaI0
aa(lp98
(lp99
F0.66755303629618357
aF2.3273781886807434
aF1.0618271189121049
aF1.6163292688113562
aF2.7642901585339961
aF0.51989390016467119
aaI0
aa(lp100
(lp101
F2.5619637119133731
aF0.14151006412306733
aF1.4601952484244707
aF1.5563131820994389
aF1.1052748240645602
aF2.222923183297246
aaI0
aa.