(lp1
((lp2
F1.2798425042236325
aF1.4092966592547698
aF0.62682039871002537
aF0.89996909208849662
aF0.45046798752692263
aF1.0128067344025968
aI0
tp3
a((lp4
F2.0720467727847982
aF0.07309657166632566
aF2.864964821741673
aF1.2776041527030495
aF0.87243676077382715
aF2.2358397308892277
aI0
tp5
a((lp6
F2.8103896707245735
aF1.3284402442100571
aF2.2299285965774347
aF2.9516497056126103
aF0.59596547728210525
aF1.7992458317617281
aI0
tp7
a((lp8
F0.13208048019344132
aF2.8016098084550038
aF0.019223669466832072
aF1.1180025111919667
aF2.0223149994140006
aF1.4144654823438976
aI0
tp9
a((lp10
F1.4979251388873713
aF2.6881990284908275
aF1.0550532804546751
aF1.2972257306402364
aF0.15430018802371792
aF2.6498375329379051
aI0
tp11
a((lp12
F1.0587730835110785
aF0.6950986032927442
aF0.54556990424678498
aF2.4753791080905652
aF2.8151639725553457
aF0.43366598200800488
aI0
tp13
a((lp14
F1.3867837366590661
aF2.7211809821651531
aF1.6090402654554916
aF0.78886050537848351
aF2.3868139288826513
aF0.33804776298432337
aI0
tp15
a((lp16
F0.30154390747193272
aF2.7437273715638097
aF0.72516568616839527
aF2.2543345006633393
aF2.7465123630585566
aF2.5887744568184039
aI0
tp17
a((lp18
F0.70366699648909792
aF0.66339351027171978
aF2.8717237433977538
aF0.88141717031534272
aF2.3004258311978028
aF1.6149831684078868
aI0
tp19
a((lp20
F2.8226424252243163
aF2.3538591761988013
aF0.5970334513254808
aF2.4394615063065888
aF1.0152795324969333
aF1.8418960424834214
aI0
tp21
a((lp22
F0.51560207687615156
aF1.8653294932765352
aF0.1490738955825649
aF1.4386009478643094
aF2.401982502152376
aF1.6713976800305479
aI0
tp23
a((lp24
F0.21099340596617744
aF2.5249934304774873
aF0.67874759379789396
aF1.3444465000154673
aF1.6976108478555214
aF1.8780259993213082
aI0
tp25
a((lp26
F0.18565707700268574
aF2.1483310563120073
aF2.2315837525386062
aF0.084403347951861774
aF0.70627331999686238
aF1.721777962022933
aI0
tp27
a((lp28
F2.8705918498359022
aF2.6549041620227034
aF2.7147230183078004
aF2.8994636968177043
aF0.61559486400392038
aF2.2580374447492733
aI0
tp29
a((lp30
F2.5482780058370924
aF1.2336743233435064
aF2.7920349071409989
aF2.9277325424943426
aF1.0147569544624346
aF1.1232091725673246
aI0
tp31
a((lp32
F0.90444031841573169
aF2.9418750420577151
aF1.8859862421020273
aF1.8708328941728749
aF0.99049574625243531
aF1.0926507269804471
aI0
tp33
a((lp34
F0.85606258926048207
aF0.99503263560735955
aF1.1917639401572866
aF1.0385328378726237
aF2.3107732280407465
aF2.3059708843940556
aI0
tp35
a((lp36
F0.94623038024775485
aF1.6069393777670924
aF0.32954748112844234
aF1.0578440741144268
aF0.42660535559507207
aF2.1428966569273533
aI0
tp37
a((lp38
F2.4606836756770392
aF2.7948681274124301
aF0.58137217458341639
aF0.7446890035967596
aF2.9207893947611794
aF2.1632575727061578
aI0
tp39
a((lp40
F0.97088338027115351
aF1.8448437611102688
aF0.20229391660941776
aF2.5995111784905038
aF1.5578535306410761
aF0.77660548331581281
aI0
tp41
a((lp42
F2.3545054134099184
aF1.8638387003743215
aF0.17314036787825804
aF0.13517519088118612
aF1.3492847940715096
aF0.11112856141711047
aI0
tp43
a((lp44
F1.6123982329958852
aF2.6068481126124912
aF0.69194045379796487
aF0.041919817730126985
aF1.3076596700765419
aF0.82782748805629758
aI0
tp45
a((lp46
F1.5507093958385005
aF1.4753524027681422
aF0.30209124795195308
aF0.71995876342124998
aF0.30851922213925764
aF1.9593452101349702
aI0
tp47
a((lp48
F1.9841953440123865
aF0.33403359808668132
aF0.22736357299593846
aF1.5471591910097935
aF2.3989632018492184
aF2.7710823237498876
aI0
tp49
a((lp50
F0.12449415570572109
aF1.5428213365416417
aF2.8619847868860728
aF2.7010579202792742
aF2.8819459029848389
aF0.29086949372870752
aI0
tp51
a((lp52
F1.0417544638133434
aF1.2723885112633024
aF2.0205565137988395
aF1.7400624956143911
aF0.02305819675285059
aF1.0395002646434419
aI0
tp53
a((lp54
F2.8983583934067907
aF1.3225836657975938
aF2.0088703185787335
aF2.3072857266768674
aF1.9394031527042714
aF1.8891437336187882
aI0
tp55
a((lp56
F2.6899879447002948
aF2.6000784957553682
aF0.59430849305281552
aF2.272533943702765
aF0.32137500774487815
aF2.3363010773922057
aI0
tp57
a((lp58
F0.61799581387381852
aF1.3434881045904619
aF1.3224701577841693
aF0.022350910447230476
aF0.91317190636033574
aF1.154698962172394
aI0
tp59
a((lp60
F2.2477324046754252
aF2.1950720311263643
aF2.3339162724929721
aF2.3886697501927516
aF0.47777941468449348
aF1.9004547921607746
aI0
tp61
a((lp62
F1.9397926256978453
aF1.3904898154674306
aF2.8459231740795263
aF0.59873061866802035
aF1.5995375665353495
aF0.17344923690535941
aI0
tp63
a((lp64
F2.4569730739907207
aF1.002304107216593
aF0.43992981873877601
aF1.3696579282839874
aF2.2206083175662581
aF2.3689424328942552
aI0
tp65
a((lp66
F2.8765976011283838
aF2.9449487988819993
aF0.74380682182816604
aF0.8551968026488509
aF1.2463160858592885
aF0.86468899094304064
aI0
tp67
a((lp68
F2.889202745089019
aF2.1976917604057422
aF1.534526968649663
aF0.10417693440923947
aF1.079396871655419
aF1.4992532898047526
aI0
tp69
a((lp70
F1.5496312589584236
aF0.36718057735018039
aF1.7917242093409329
aF2.7713238279829731
aF0.13120966543021806
aF0.65305862761720368
aI0
tp71
a((lp72
F1.6022477610532471
aF0.32291247539032586
aF0.31278838252951058
aF1.5209613574132406
aF1.623086662628884
aF2.944147422503697
aI0
tp73
a((lp74
F1.9749015321326564
aF0.36390732815550264
aF2.9864189035146933
aF0.67430457399301269
aF2.6500618553471593
aF2.0080712286422786
aI0
tp75
a((lp76
F1.1038443144988879
aF0.43126638916505189
aF1.0894835510458822
aF1.2020153813771564
aF1.0342119257415463
aF0.86410067951702407
aI0
tp77
a((lp78
F2.3450101018027292
aF2.0429429005552819
aF2.7506677365435346
aF1.983088929727709
aF0.62647033031901722
aF2.5603928585134552
aI0
tp79
a((lp80
F2.4139454399112141
aF2.6899121173792797
aF0.97122195332776162
aF0.0021200329130761641
aF1.2284051023437561
aF2.7031926847756496
aI0
tp81
a((lp82
F0.76747295261833604
aF2.4328354754837478
aF2.3140452518412502
aF2.3612731480914158
aF2.6118807945477385
aF1.8267341815743696
aI0
tp83
a((lp84
F2.1984394234888027
aF1.3638983247329413
aF0.51214254383845204
aF1.7960301485071888
aF1.8252783181586221
aF1.9935257781357243
aI0
tp85
a((lp86
F0.95574573098930038
aF0.89792462523724736
aF1.1929978108741324
aF2.8878184701289098
aF0.91434923524259948
aF2.7698368507744413
aI0
tp87
a((lp88
F0.28346399199331707
aF1.8841373782566522
aF1.253087153386629
aF1.1648682196977238
aF2.6643262731592623
aF2.8941980129848281
aI0
tp89
a((lp90
F2.1155683097322968
aF2.0386459729442037
aF1.9245667224887046
aF1.5386013154297202
aF0.70868837040831789
aF0.38979739568884497
aI0
tp91
a((lp92
F1.8904335213295336
aF2.3855018522579052
aF1.0702087184527276
aF1.9631449479279193
aF1.6426084409252408
aF2.0821241500091481
aI0
tp93
a((lp94
F0.86221148783730406
aF1.7075568269176127
aF1.4246470600635801
aF1.0109820486875223
aF1.1605862340386794
aF2.4040409326298513
aI0
tp95
a((lp96
F0.91760091659250909
aF2.544392279964224
aF0.25870354459472455
aF1.8750583818925621
aF1.9387957406673606
aF2.0551974122296111
aI0
tp97
a((lp98
F0.43372449952508485
aF2.723130443681494
aF0.90595353159795289
aF1.9168513840227286
aF2.1727605523977545
aF2.3972793754872939
aI0
tp99
a((lp100
F2.2323989498235077
aF2.5204696125868882
aF2.6082142473605447
aF0.35269345807357688
aF0.72023969557923695
aF1.7012382045091441
aI0
tp101
a.