(lp1
(lp2
(lp3
F0.53000000000000003
aF0.070000000000000007
aF0.81000000000000005
aF0.88
aF0.35999999999999999
aF0.16
aF0.65000000000000002
aF0.68999999999999995
aF0.20000000000000001
aaI0
aa(lp4
(lp5
F0.35999999999999999
aF0.46999999999999997
aF0.69999999999999996
aF0.059999999999999998
aF0.60999999999999999
aF0.39000000000000001
aF0.34000000000000002
aF0.23999999999999999
aF0.25
aaI0
aa(lp6
(lp7
F0.10000000000000001
aF0.050000000000000003
aF0.62
aF0.83999999999999997
aF0.60999999999999999
aF0.81999999999999995
aF0.13
aF0.42999999999999999
aF0.35999999999999999
aaI0
aa(lp8
(lp9
F0.40999999999999998
aF0.60999999999999999
aF0.34000000000000002
aF0.040000000000000001
aF0.23000000000000001
aF0.68000000000000005
aF0.44
aF0.85999999999999999
aF0.92000000000000004
aaI0
aa(lp10
(lp11
F0.27000000000000002
aF0.48999999999999999
aF0.79000000000000004
aF0.57999999999999996
aF0.51000000000000001
aF0.31
aF0.23000000000000001
aF0.46000000000000002
aF0.85999999999999999
aaI0
aa(lp12
(lp13
F0.22
aF0.63
aF0.32000000000000001
aF0.33000000000000002
aF0.72999999999999998
aF0.14999999999999999
aF0.32000000000000001
aF0.01
aF0.12
aaI0
aa(lp14
(lp15
F0.72999999999999998
aF0.51000000000000001
aF0.77000000000000002
aF0.97999999999999998
aF0.83999999999999997
aF0.10000000000000001
aF0.47999999999999998
aF0.10000000000000001
aF0.34000000000000002
aaI0
aa(lp16
(lp17
F0.23000000000000001
aF0.75
aF0.22
aF0.19
aF0.77000000000000002
aF0.94999999999999996
aF0.60999999999999999
aF0.77000000000000002
aF0.54000000000000004
aaI0
aa(lp18
(lp19
F0.68999999999999995
aF0.48999999999999999
aF0.14999999999999999
aF0.28000000000000003
aF0.40000000000000002
aF0.42999999999999999
aF0.48999999999999999
aF0.31
aF0.48999999999999999
aaI0
aa(lp20
(lp21
F0.28999999999999998
aF0.67000000000000004
aF0.95999999999999996
aF0.84999999999999998
aF0.050000000000000003
aF0.070000000000000007
aF0.20000000000000001
aF0.10000000000000001
aF0.72999999999999998
aaI0
aa(lp22
(lp23
F0.64000000000000001
aF0.63
aF0.35999999999999999
aF0.23999999999999999
aF0.80000000000000004
aF0.39000000000000001
aF0.51000000000000001
aF0.92000000000000004
aF0.92000000000000004
aaI0
aa(lp24
(lp25
F1
aF0.83999999999999997
aF0.32000000000000001
aF0.17999999999999999
aF0.42999999999999999
aF0.34000000000000002
aF0.46999999999999997
aF0.46999999999999997
aF0.66000000000000003
aaI0
aa(lp26
(lp27
F0.46000000000000002
aF0.60999999999999999
aF0.23000000000000001
aF0.68999999999999995
aF0.65000000000000002
aF0.46000000000000002
aF0.040000000000000001
aF0.93000000000000005
aF0.40999999999999998
aaI0
aa(lp28
(lp29
F0.67000000000000004
aF0.84999999999999998
aF0.29999999999999999
aF0.87
aF0.65000000000000002
aF0.12
aF0.34999999999999998
aF0.81000000000000005
aF0.66000000000000003
aaI0
aa(lp30
(lp31
F0.56999999999999995
aF0.14000000000000001
aF0.35999999999999999
aF0.28000000000000003
aF0.77000000000000002
aF0.54000000000000004
aF0.080000000000000002
aF0.44
aF0.32000000000000001
aaI0
aa.