(lp1
(lp2
(lp3
F0.67375778103302297
aF0.61997320279132995
aF0.20572541004571065
aF0.66298016181501807
aF0.52930582667540826
aF0.9440669063849858
aF0.081085460274342824
aF0.99241117747074736
aF0.078311029302939983
aaF0.33999999999999986
aa(lp4
(lp5
F0.56985362660268157
aF0.33487965000087716
aF0.20572541004571065
aF0.66298016181501807
aF0.52930582667540826
aF0.9440669063849858
aF0.081085460274342824
aF0.99241117747074736
aF0.56354775000109214
aaI0
aa(lp6
(lp7
F0.67375778103302297
aF0.99763666149043917
aF0.52424948818406369
aF0.21219015753467174
aF0.38876525244810811
aF0.3490861927220541
aF0.081085460274342824
aF0.96082532793395092
aF0.95658631861041832
aaI0
aa(lp8
(lp9
F0.67375778103302297
aF0.61997320279132995
aF0.10330567037561933
aF0.024729858864537047
aF0.60361443479456378
aF0.92123965468185309
aF0.8161071828056875
aF0.33403357512570353
aF0.59228273461774461
aaI0
aa(lp10
(lp11
F0.96237831314335442
aF0.40842037473370518
aF0.72564494120844059
aF0.10520954456660292
aF0.69391930100984522
aF0.32165672733170081
aF0.13105920045559183
aF0.74518118120861609
aF0.56354775000109214
aaI0
aa(lp12
(lp13
F0.67375778103302297
aF0.99763666149043917
aF0.52424948818406369
aF0.21219015753467174
aF0.38876525244810811
aF0.3490861927220541
aF0.081085460274342824
aF0.99241117747074736
aF0.078311029302939983
aaI0
aa(lp14
(lp15
F0.67375778103302297
aF0.61997320279132995
aF0.10330567037561933
aF0.024729858864537047
aF0.52930582667540826
aF0.9440669063849858
aF0.081085460274342824
aF0.99241117747074736
aF0.078311029302939983
aaI0
aa(lp16
(lp17
F0.67375778103302297
aF0.99763666149043917
aF0.52424948818406369
aF0.21219015753467174
aF0.38876525244810811
aF0.3490861927220541
aF0.081085460274342824
aF0.99241117747074736
aF0.078311029302939983
aaI0
aa(lp18
(lp19
F0.67375778103302297
aF0.99763666149043917
aF0.52424948818406369
aF0.21219015753467174
aF0.38876525244810811
aF0.3490861927220541
aF0.081085460274342824
aF0.99241117747074736
aF0.95658631861041832
aaI0
aa(lp20
(lp21
F0.56985362660268157
aF0.33487965000087716
aF0.20572541004571065
aF0.66298016181501807
aF0.52930582667540826
aF0.9440669063849858
aF0.081085460274342824
aF0.25283467626756206
aF0.95658631861041832
aaI0
aa(lp22
(lp23
F0.56985362660268157
aF0.33487965000087716
aF0.20572541004571065
aF0.66298016181501807
aF0.38876525244810811
aF0.3490861927220541
aF0.081085460274342824
aF0.99241117747074736
aF0.078311029302939983
aaI0
aa(lp24
(lp25
F0.56536945119816995
aF0.84391028604235907
aF0.42574996506345242
aF0.71034900755599573
aF0.69391930100984522
aF0.32165672733170081
aF0.13105920045559183
aF0.96082532793395092
aF0.95658631861041832
aaI0
aa(lp26
(lp27
F0.56985362660268157
aF0.33487965000087716
aF0.20572541004571065
aF0.66298016181501807
aF0.52930582667540826
aF0.9440669063849858
aF0.081085460274342824
aF0.99241117747074736
aF0.078311029302939983
aaI0
aa(lp28
(lp29
F0.96237831314335442
aF0.40842037473370518
aF0.72564494120844059
aF0.10520954456660292
aF0.69391930100984522
aF0.32165672733170081
aF0.13105920045559183
aF0.74518118120861609
aF0.56354775000109214
aaI0
aa(lp30
(lp31
F0.56985362660268157
aF0.33487965000087716
aF0.20572541004571065
aF0.66298016181501807
aF0.52930582667540826
aF0.3490861927220541
aF0.081085460274342824
aF0.99241117747074736
aF0.48291691903799916
aaI0
aa.