(lp1
(lp2
(lp3
F2.3942331707528748
aF2.3425858440375835
aF0.88241430333341209
aF0.97430578081273744
aF0.91742991112128269
aF1.2373497382495757
aaF0.20000000000000001
aa(lp4
(lp5
F0.87656996124131092
aF1.9842271996550069
aF0.45196148439837647
aF1.1934664173533156
aF1.4792992013413104
aF1.4292285599785153
aaI0
aa(lp6
(lp7
F1.0446083026991433
aF0.76778275111147087
aF1.4090350418993669
aF1.0717713804750422
aF0.94150306225179203
aF2.912549518645438
aaI0
aa(lp8
(lp9
F0.28215520351242152
aF0.66486202712658937
aF0.71583479210410617
aF1.4391885101425128
aF2.3142733161450781
aF1.3970411124577669
aaI0
aa(lp10
(lp11
F1.9716355716000369
aF0.60542936662897384
aF1.3418950755726202
aF1.5178922432282689
aF2.3309368513577864
aF0.68765317118539782
aaI0
aa(lp12
(lp13
F1.7166490059207833
aF1.0796877407202246
aF0.56537047229524406
aF1.5808215399823595
aF1.2050955070090492
aF2.0720022109584635
aaI0
aa(lp14
(lp15
F1.2282385158526816
aF0.5060176289987327
aF2.3029800375250229
aF0.22149395207889966
aF2.2175228111851504
aF2.3644761894447819
aaI0
aa(lp16
(lp17
F0.81616523141939945
aF0.51645827031258151
aF0.040529002741990228
aF1.2924702158215839
aF1.0425890111506808
aF2.0057959967246015
aaI0
aa(lp18
(lp19
F2.5958815655359997
aF0.56989943237525531
aF0.29534836496145489
aF2.2971997185760182
aF1.3922653586345985
aF2.8527765892846033
aaI0
aa(lp20
(lp21
F1.8242633088397135
aF1.4283444787520154
aF0.4688802211461276
aF1.6262696548194211
aF2.8768761344498759
aF0.90177825231406317
aaI0
aa(lp22
(lp23
F1.0562924878629758
aF1.1954933359632631
aF2.2610846104685001
aF0.18723862253709189
aF0.31021364759039693
aF1.2249293984965515
aaI0
aa(lp24
(lp25
F1.7193928093544901
aF0.49349137049245673
aF2.1856796436163357
aF1.9845286240195801
aF1.5641637076665518
aF2.4524774874454036
aaI0
aa(lp26
(lp27
F0.71404912956026267
aF1.7634656290352497
aF1.5431565070977418
aF2.0410687053288883
aF2.4563983984502382
aF1.3647687416027996
aaI0
aa(lp28
(lp29
F0.30304418769610475
aF1.7575003320332216
aF2.5868811824001674
aF0.24160833840378415
aF0.47417358139910581
aF0.54993955163579389
aaI0
aa(lp30
(lp31
F1.0853006878168332
aF0.65008185365435589
aF2.2603813428055126
aF0.46782133447769658
aF1.0219799820501447
aF2.8903438929808027
aaI0
aa(lp32
(lp33
F2.7656965656815165
aF1.4385008202149439
aF1.662566330698787
aF1.3683003839009342
aF0.47337765546432076
aF0.079275478738283778
aaI0
aa(lp34
(lp35
F1.1792088695803256
aF0.66617451283993179
aF2.7030621559549206
aF2.6107770053314172
aF1.2139592443693406
aF0.25104114137993216
aaI0
aa(lp36
(lp37
F0.2980287867928566
aF2.7291457444347658
aF2.7946167904115589
aF2.0726143608729934
aF1.2912308970222357
aF0.063124860722605924
aaI0
aa(lp38
(lp39
F2.0276653771390336
aF0.87690959490993492
aF2.2121670762748469
aF0.42126501544343886
aF2.3479296370777494
aF0.68216087224606825
aaI0
aa(lp40
(lp41
F1.7639347385287951
aF0.072846319927131198
aF2.5552051993977574
aF1.3676899068108699
aF1.3411225295503029
aF1.0517707296082683
aaI0
aa(lp42
(lp43
F1.4877797797162478
aF1.4225048839542156
aF1.9533371899540186
aF2.9854082215527313
aF0.8512716174234598
aF0.060747746754233667
aaI0
aa(lp44
(lp45
F0.52820876948083695
aF0.58998258592072839
aF2.5975953212310525
aF0.096832468034620867
aF0.012992448512036292
aF2.6577208040983353
aaI0
aa(lp46
(lp47
F1.0668309286401141
aF2.6586808385405338
aF0.83683200306330685
aF0.77040877663177509
aF1.4394624937431837
aF1.0494699132726524
aaI0
aa(lp48
(lp49
F1.6075998345539451
aF2.2998025900903878
aF0.051213580095510802
aF0.33357899886600306
aF1.8497926934293059
aF0.66144346172532908
aaI0
aa(lp50
(lp51
F1.3958921677161999
aF0.26521256759185763
aF2.8110511443187818
aF0.36719574790755238
aF2.3287566777248356
aF2.346850633070733
aaI0
aa(lp52
(lp53
F2.0023355196811812
aF2.1846645436753538
aF1.2268499352765683
aF2.0297662753199015
aF1.1250198358822701
aF0.86338344708566328
aaI0
aa(lp54
(lp55
F2.0514194011956928
aF2.6809141478415794
aF1.4863375981277418
aF0.81500453650325722
aF0.53003925030090138
aF2.2239254710065111
aaI0
aa(lp56
(lp57
F1.0118801868581278
aF0.89660379170964644
aF2.4702551416472964
aF2.6394057700626163
aF0.44485620538810033
aF2.3846759972395328
aaI0
aa(lp58
(lp59
F0.75072259006521336
aF1.1422853362352996
aF1.1332601400463509
aF0.14739932789877175
aF1.9219711578429477
aF1.4569123795152363
aaI0
aa(lp60
(lp61
F0.23445475638185487
aF2.4161628289962032
aF2.5305665772473476
aF0.29369114665901963
aF0.47237239295793887
aF1.876925081640783
aaI0
aa(lp62
(lp63
F2.4417231004462017
aF1.336302106603823
aF1.7458916825182615
aF0.47655536776482676
aF0.25527938502431635
aF2.6663952575062702
aaI0
aa(lp64
(lp65
F0.71832072744289321
aF2.7143169911509242
aF2.1118244072984282
aF1.7888646470411884
aF1.9839218230371061
aF2.8278365423300844
aaI0
aa(lp66
(lp67
F0.75998365650910793
aF1.4132917280401287
aF0.051525873971042691
aF1.9824697674561251
aF1.2081451678748723
aF2.8935776531164832
aaI0
aa(lp68
(lp69
F1.7374024025473287
aF0.0045654035746123256
aF2.0748177400230583
aF2.3951300226128533
aF0.30408249079110372
aF2.623972945619701
aaI0
aa(lp70
(lp71
F2.7896198090426507
aF2.4950555665354659
aF1.9051873908045729
aF1.8828950458594613
aF0.5255671917446666
aF1.8222119608341378
aaI0
aa(lp72
(lp73
F2.8473293095066885
aF1.3094835065146755
aF0.43527174546096692
aF1.9754914026665704
aF2.6512734791450385
aF2.3835796069072908
aaI0
aa(lp74
(lp75
F1.148533529400027
aF1.0405147011916733
aF1.652905137457831
aF2.64332758769299
aF2.4108482971920751
aF0.33977101365138718
aaI0
aa(lp76
(lp77
F2.0637515893049434
aF2.7167898167167892
aF2.4394153861446592
aF2.2770305862815348
aF0.33104806102690243
aF1.8967824269557529
aaI0
aa(lp78
(lp79
F2.2091746541864157
aF0.27186458842653349
aF1.2741060544848883
aF0.98302164793556779
aF1.6671237133897201
aF0.46737680902303869
aaI0
aa(lp80
(lp81
F2.3246004452232691
aF0.59118490517299116
aF0.5167584586998093
aF2.1626474754230016
aF1.9276941227919839
aF2.8471167796084704
aaI0
aa(lp82
(lp83
F1.1674711292445936
aF0.11622984852443496
aF0.051088166302727278
aF2.1822056494631976
aF1.8016676507369991
aF2.7889520955395004
aaI0
aa(lp84
(lp85
F2.2616420065649359
aF2.0555738601328706
aF0.056695694680815589
aF0.94260157290606084
aF1.1782411564905657
aF1.8382182923506016
aaI0
aa(lp86
(lp87
F0.80176115104149281
aF1.0177236185654781
aF2.9575915441890128
aF1.0335451241957871
aF2.6583545538891244
aF0.94936697544289539
aaI0
aa(lp88
(lp89
F1.9317233360619728
aF2.9680575378839653
aF0.76601661720705261
aF1.5205924745896455
aF2.7213546576103527
aF0.91642552131568911
aaI0
aa(lp90
(lp91
F2.1060255319156655
aF1.6599280370698655
aF1.3862892810596197
aF0.12310685059095361
aF1.0039735117229036
aF0.28291263783725551
aaI0
aa(lp92
(lp93
F0.22508605291836159
aF0.39526768779295407
aF0.89772007011297494
aF0.31819208496300178
aF0.13419163938771006
aF2.3483938544511207
aaI0
aa(lp94
(lp95
F2.4841132116590705
aF2.8540228816111965
aF0.41031101100946599
aF0.76056276912487897
aF0.70965266382878733
aF0.44474920791510297
aaI0
aa(lp96
(lp97
F2.4965155602928362
aF1.0914098838967869
aF2.5567836090127778
aF0.07512248464781035
aF0.25357265745698498
aF0.62207208073246223
aaI0
aa(lp98
(lp99
F0.36229063137504391
aF0.3443790971848123
aF1.9599251286855084
aF0.97609143980085822
aF1.0269759578127864
aF0.79999584592942796
aaI0
aa(lp100
(lp101
F0.49043884083405365
aF1.9250613566745169
aF0.75580107470641056
aF2.6417609817874124
aF0.1880345286617171
aF1.5521598260362786
aaI0
aa.