(lp1
(lp2
(lp3
F2.3126726653715695
aF2.6315797223529773
aF1.7261075830665937
aF0.29041376729391055
aF1.0781647721339043
aF1.0259595096371132
aaF0.6166666666666667
aa(lp4
(lp5
F1.3947601338040441
aF1.7343790884514367
aF1.4042577206610098
aF2.3801400958246486
aF1.5290633325742928
aF1.105804541418046
aaI0
aa(lp6
(lp7
F2.9016110177467427
aF0.56675640512109471
aF2.516602931764413
aF0.6657069747050598
aF1.5598249751555735
aF1.7495070901844061
aaI0
aa(lp8
(lp9
F0.50527021797414817
aF1.6597258542043238
aF1.2527198885760558
aF2.8023494429432043
aF2.0867254672953606
aF0.76810414727475596
aaI0
aa(lp10
(lp11
F1.0980136297232193
aF1.6823277166998918
aF0.77669840944232116
aF0.43704005893944042
aF0.46590715252213921
aF0.55255828583195765
aaI0
aa(lp12
(lp13
F2.5327655809376917
aF1.7206147540281793
aF2.4371627724563423
aF1.45395545941691
aF1.3680830038103173
aF2.0198386570926328
aaI0
aa(lp14
(lp15
F2.3292767064388089
aF0.98620574179972864
aF0.89518938827204431
aF1.1084869175402869
aF1.6354809650285902
aF0.010645039951910906
aaI0
aa(lp16
(lp17
F0.49627519160647349
aF2.6124369277775883
aF0.61427359381730717
aF0.67622148039680641
aF0.99090376513258482
aF2.1900867072798076
aaI0
aa(lp18
(lp19
F1.3366417240632895
aF2.9767232465522242
aF1.8650279343651004
aF1.8129379185668226
aF0.75530808543179817
aF1.6457909090391181
aaI0
aa(lp20
(lp21
F0.17448951784075684
aF0.62788520556356753
aF0.33125003502503803
aF1.4294368341050681
aF1.4209402915236602
aF0.76819370545167809
aaI0
aa(lp22
(lp23
F1.5836848618730648
aF0.68061429095704573
aF2.9676943434783962
aF0.98787709204536855
aF2.5697987348129776
aF0.18993668984909062
aaI0
aa(lp24
(lp25
F1.6058454233017816
aF0.66296640165122778
aF2.0355585156961933
aF0.40421385448707869
aF2.2034966204335125
aF0.29033988217086948
aaI0
aa(lp26
(lp27
F0.3342775474008266
aF1.5254093826387174
aF1.4397873175744449
aF1.5568204855723216
aF1.7061664911468002
aF2.5910086838865611
aaI0
aa(lp28
(lp29
F1.9154913795303603
aF0.66498680019802525
aF1.8257525809532895
aF1.3635358005354647
aF1.4707124101732409
aF1.0775071189130756
aaI0
aa(lp30
(lp31
F2.7112935546212058
aF1.219659784245227
aF0.21381923251416834
aF0.37658633669354857
aF0.34316259241211922
aF2.696588769312291
aaI0
aa(lp32
(lp33
F1.9680181945882478
aF0.88818937556102684
aF0.55661360985975483
aF2.2578738807695866
aF0.78256766525710619
aF2.2930434776571946
aaI0
aa(lp34
(lp35
F0.41023517034829415
aF1.1846247931674521
aF1.7295916930815896
aF1.1874832069326415
aF0.61737043422452442
aF0.81131716201128901
aaI0
aa(lp36
(lp37
F0.57169120804512752
aF1.2248460269024337
aF0.14894109036661618
aF1.2079535179708518
aF0.57414396747195462
aF2.8410067248789748
aaI0
aa(lp38
(lp39
F1.6214394146094935
aF1.9460458141644739
aF0.15808391434608837
aF0.32912537404646836
aF1.372765370103832
aF1.8786509342360054
aaI0
aa(lp40
(lp41
F2.822708391812017
aF1.8817715487753488
aF1.3005899331959174
aF0.48340992021643536
aF0.42940915923766265
aF2.300022719678013
aaI0
aa(lp42
(lp43
F1.0981328814145792
aF2.799658827182296
aF2.6770376026262404
aF2.1160744111906431
aF2.2406553097051125
aF1.8004748388567089
aaI0
aa(lp44
(lp45
F2.0598686327657552
aF1.4480488312939801
aF2.9993698432715368
aF1.3909219458803423
aF1.2173157397503318
aF1.6173884543547055
aaI0
aa(lp46
(lp47
F0.62718711476384781
aF1.5392247311914704
aF0.25919938588833757
aF1.3043330727201667
aF2.2652941884557163
aF1.0568278537456621
aaI0
aa(lp48
(lp49
F1.6765259357524798
aF2.1599013705924204
aF2.3282796777007415
aF0.95426761222901835
aF2.306152880176497
aF1.1881126963891557
aaI0
aa(lp50
(lp51
F0.087700664838835651
aF1.796822062528141
aF1.4752892511686655
aF1.6561575646286282
aF1.2100722052178599
aF1.1004259577054352
aaI0
aa(lp52
(lp53
F2.2969848480284361
aF2.5602089949561453
aF0.60085202682436945
aF1.7825967385914929
aF2.7938722892985526
aF0.8632445432101179
aaI0
aa(lp54
(lp55
F0.25084642595729689
aF1.0071665070132747
aF0.65464893510898581
aF2.9322303822013982
aF1.0430011174666594
aF2.6556676698580599
aaI0
aa(lp56
(lp57
F2.075086316328802
aF2.4676707568675371
aF1.6375120633738236
aF0.14566185616517058
aF2.2372148606225775
aF0.80103517527956547
aaI0
aa(lp58
(lp59
F0.42906311762474048
aF1.705922727906529
aF2.6266645235109993
aF0.9933279510959373
aF1.1380207505455411
aF1.9604849333341661
aaI0
aa(lp60
(lp61
F0.58200558374521705
aF0.17348619316132019
aF1.0183640589787295
aF2.8885518696915491
aF0.77169561171277901
aF2.6805312115543019
aaI0
aa(lp62
(lp63
F1.1848476061124886
aF0.54398404785310861
aF2.4316495013027084
aF2.3993601822918937
aF2.1796542208158134
aF2.9738070932426646
aaI0
aa(lp64
(lp65
F1.1785460040563971
aF0.46655570287865422
aF1.2058500298972434
aF0.55238026189756462
aF2.3857915000930379
aF2.7602965126867556
aaI0
aa(lp66
(lp67
F0.70050143160661471
aF0.65796637635658761
aF0.31579067907725156
aF0.094353544588016036
aF1.0533839179184343
aF2.612692417714241
aaI0
aa(lp68
(lp69
F0.57385926328978365
aF0.33103734250711303
aF2.8477387289405387
aF0.023106782841504248
aF2.5432912212369159
aF2.2176332428754835
aaI0
aa(lp70
(lp71
F2.839544647340448
aF1.5787580857864705
aF2.4248427990212233
aF1.1724800540297187
aF0.90053569144156731
aF1.4555866069029553
aaI0
aa(lp72
(lp73
F2.6595045942328412
aF2.6107716923677096
aF1.100778277119935
aF1.6935736223734232
aF1.4396306402812966
aF2.5838441581839895
aaI0
aa(lp74
(lp75
F0.29766351061863106
aF1.5356141767856331
aF2.3021596261937409
aF1.5569073730522511
aF2.837703071553717
aF2.44002125818557
aaI0
aa(lp76
(lp77
F0.44127247807126435
aF2.3427321683209961
aF2.7230454741035697
aF2.8987867123558679
aF2.8897707247192783
aF0.56540728595191714
aaI0
aa(lp78
(lp79
F1.7751255914961952
aF0.48092125914591999
aF2.4353578903139224
aF2.3344694027303223
aF2.9315800035140391
aF0.79276367044143115
aaI0
aa(lp80
(lp81
F1.8880937012687926
aF2.1628962504551237
aF2.7535468289999638
aF2.4404931416219808
aF0.041123760823022604
aF2.7103639932055699
aaI0
aa(lp82
(lp83
F1.3039377448263516
aF0.18434358993493194
aF2.5692911468390593
aF1.2422171744240131
aF1.9272707252640915
aF0.70669584472362179
aaI0
aa(lp84
(lp85
F1.7071379070961172
aF2.462903894745621
aF0.71576659546784371
aF0.43554865860837222
aF1.3356315576517237
aF0.32668042247075091
aaI0
aa(lp86
(lp87
F1.9762330247547721
aF2.6017688858218344
aF1.2898463920832137
aF1.3656507113018224
aF1.4581750300520198
aF2.371669004135919
aaI0
aa(lp88
(lp89
F2.0022250856469022
aF1.2085609948495972
aF0.80434814208293282
aF0.43735079408254252
aF1.8089456418724854
aF2.4548632236659804
aaI0
aa(lp90
(lp91
F2.0025898911004352
aF2.5944115127177314
aF1.3423008784052324
aF2.1717028753751548
aF1.1828240795309188
aF0.61959146686739752
aaI0
aa(lp92
(lp93
F0.29861322235750698
aF2.5752768171031737
aF0.070045596008791899
aF2.4692048567313898
aF1.7927073563133353
aF2.658101280834364
aaI0
aa(lp94
(lp95
F2.682567817628104
aF2.5025660243404086
aF0.73367335236098441
aF2.0853600677998161
aF1.139703812403781
aF0.42173682705812454
aaI0
aa(lp96
(lp97
F0.44792484839370528
aF0.11036743802926541
aF0.62754052565675689
aF2.2320747924076665
aF0.32758958888195555
aF0.90194646232000963
aaI0
aa(lp98
(lp99
F1.0957467158733796
aF0.37730030506698109
aF0.99731415636938214
aF0.36140377263765944
aF2.640652054932684
aF1.4626314301311278
aaI0
aa(lp100
(lp101
F2.012110763024304
aF2.5178770699940807
aF2.4306481389141847
aF0.58507146008813671
aF0.77231599514767424
aF2.9819094056867272
aaI0
aa.