(lp1
(lp2
(lp3
F1.2507980078310503
aF0.53688034253964068
aF2.3688269232888555
aF0.88594133904516237
aF1.5809422998476821
aF2.8814504988622276
aaI0
aa(lp4
(lp5
F0.20870677908696278
aF0.016413509283225935
aF0.20035679617142188
aF1.0429123142713985
aF0.03422174266534006
aF0.87215609629193114
aaI0
aa(lp6
(lp7
F2.6351387227718339
aF1.7098643894816887
aF1.8517276337400068
aF1.3885202900395024
aF1.5056325219929454
aF2.7617998044260252
aaI0
aa(lp8
(lp9
F1.2225560963886011
aF1.9359029751019179
aF0.11196514911224897
aF1.4589759140549867
aF2.5884321265291832
aF2.2112891243352002
aaI0
aa(lp10
(lp11
F1.8685996068232513
aF1.1199133592768973
aF1.075336876907099
aF2.3156458460377021
aF2.935970958593852
aF1.3007459534467576
aaI0
aa(lp12
(lp13
F2.9005128249947383
aF0.66887631180684193
aF2.5876536092416313
aF2.1757193670427641
aF1.2722762535422119
aF1.3600332400699267
aaI0
aa(lp14
(lp15
F0.60155706716907631
aF2.4599478214146284
aF1.1444382944686533
aF2.2297489141609943
aF1.3868701840947022
aF0.49046131154510852
aaI0
aa(lp16
(lp17
F0.54815294790324143
aF0.38701202302617799
aF1.6291222553219138
aF0.54595608946841567
aF2.6802184165777474
aF0.47790440279119928
aaI0
aa(lp18
(lp19
F2.2749645558292446
aF0.23983011400928478
aF2.0466965895766398
aF2.8410938381628603
aF0.43973944601268211
aF2.3528966882940967
aaI0
aa(lp20
(lp21
F2.3313732970818104
aF0.06411895279662938
aF2.1603449113668258
aF1.1532702026455737
aF1.0564464917884302
aF0.74017670090680299
aaI0
aa(lp22
(lp23
F2.6137157197246799
aF2.8745017904755432
aF1.9655911950522307
aF0.59707611795238136
aF0.75491904012239819
aF1.1120943190298207
aaI0
aa(lp24
(lp25
F0.26470160725434411
aF0.8569480779144355
aF2.3729010903795209
aF2.7614615686329413
aF2.6159771113570156
aF2.8413580665274507
aaI0
aa(lp26
(lp27
F1.9768508775984237
aF1.962118694012972
aF0.4641141101486983
aF2.1607587232013832
aF2.6487488144540161
aF1.6721192470301693
aaI0
aa(lp28
(lp29
F1.3187014082337845
aF1.3498690946500373
aF1.9195008713372208
aF0.93800404921734337
aF2.4539396047316187
aF1.2880738050157121
aaI0
aa(lp30
(lp31
F2.6304725627282277
aF1.9703389715972648
aF0.9857750917117124
aF1.8823060833685061
aF1.3618200568095451
aF0.62761310215153687
aaI0
aa(lp32
(lp33
F2.6309699652472842
aF2.0786783827217459
aF1.6256650059174453
aF0.33719950778802898
aF1.8156620737122902
aF2.4323951876957888
aaI0
aa(lp34
(lp35
F1.0859449515182213
aF2.5224910261254347
aF1.4387695719319276
aF0.41602192652097003
aF1.0073898716309575
aF0.84177186428753636
aaI0
aa(lp36
(lp37
F1.3034769036451164
aF2.7123355807331997
aF1.7563676135632813
aF2.1720855519393369
aF2.9226805218879326
aF1.8894509229936944
aaI0
aa(lp38
(lp39
F2.7943143577513769
aF0.49155677812765797
aF2.1575343615912863
aF1.2522775425014809
aF1.5139055621668169
aF1.4779362929434503
aaI0
aa(lp40
(lp41
F0.5091990034412367
aF2.4263180501036139
aF0.36159467452242622
aF0.5137870444349133
aF2.7072427583108585
aF0.71140446188593998
aaI0
aa(lp42
(lp43
F0.91832975322561605
aF1.2637985283351485
aF1.1129680274346363
aF1.4543429085239283
aF1.9065306196940992
aF0.17150143899549286
aaI0
aa(lp44
(lp45
F0.60641930383589426
aF2.1206299752248898
aF1.6522020558663093
aF0.0063060133305921084
aF1.4124514713757841
aF2.2048418123460096
aaI0
aa(lp46
(lp47
F1.2006333673706386
aF0.74388626109055889
aF0.1942586863145892
aF2.5002400039610593
aF0.48692437644289488
aF1.0197073853658423
aaI0
aa(lp48
(lp49
F0.10574705870260337
aF1.264961603610796
aF1.5480572790278644
aF1.2208713195837568
aF1.1178407764848528
aF1.1058640450765891
aaI0
aa(lp50
(lp51
F2.6146134027663472
aF0.28856356778298731
aF1.616491840380371
aF0.13034208894016674
aF0.87082455130883929
aF0.63568063323303781
aaI0
aa(lp52
(lp53
F1.8626095381981358
aF1.6410633348629005
aF0.68287455210764803
aF0.94015716319461518
aF1.4291283685009941
aF1.6790687346786441
aaI0
aa(lp54
(lp55
F1.7484809079710535
aF0.54793615784204908
aF0.03792474869765472
aF0.52493594118635156
aF1.4932652776235193
aF1.7268988763846398
aaI0
aa(lp56
(lp57
F0.96118615731603529
aF0.6045706525910377
aF0.62936848562983416
aF0.99553650315741971
aF2.6229577480810775
aF2.3041251355858914
aaI0
aa(lp58
(lp59
F1.9274144111881657
aF1.8151224429252437
aF1.4732709713794756
aF2.1685114697368673
aF1.7483804234932883
aF0.92631430100432866
aaI0
aa(lp60
(lp61
F1.1070789212057486
aF2.7934277794812505
aF1.0344101702042026
aF2.926769791307926
aF1.6858918581354063
aF0.16567858627253618
aaI0
aa(lp62
(lp63
F1.0921427597565492
aF0.58812784151547126
aF2.2779828322297795
aF2.8772435427295342
aF0.67024429368838423
aF0.4325511474192556
aaI0
aa(lp64
(lp65
F0.97394948497522316
aF0.19319358030477429
aF2.7182676458616348
aF1.2920236667790199
aF2.5031548315364169
aF1.7233661049732616
aaI0
aa(lp66
(lp67
F2.769233313597991
aF0.22672401631436156
aF1.9611178133835281
aF1.9961060310826957
aF1.266069560045227
aF2.3315780077618871
aaI0
aa(lp68
(lp69
F0.38963832684683863
aF1.4488711726752559
aF0.028509332916957786
aF2.2416713615824237
aF2.3246355103809231
aF0.56453084008571464
aaI0
aa(lp70
(lp71
F1.2115188935371892
aF0.29745112817419961
aF1.4747744335491619
aF0.53983173778836324
aF1.8964190654149677
aF1.3061651556216729
aaI0
aa(lp72
(lp73
F1.1655410092289036
aF2.6596145477053081
aF0.26154920962191353
aF1.1645757662885772
aF1.6790961731832916
aF0.079225584081179523
aaI0
aa(lp74
(lp75
F2.2871086025606768
aF1.3046303874980827
aF2.4811467974616459
aF1.0656531787295234
aF2.7711864898815461
aF0.57907695329330244
aaI0
aa(lp76
(lp77
F2.9732065863141908
aF0.15657701949004277
aF2.8902594320728521
aF1.9184411941575483
aF2.0912621767491721
aF0.10340521145307302
aaI0
aa(lp78
(lp79
F1.2952091563976809
aF2.7943315730728382
aF0.29110405953077478
aF2.6502648728285076
aF2.0028968589543288
aF2.6534871094934998
aaI0
aa(lp80
(lp81
F2.9037270016464722
aF2.631111352721649
aF1.0812335810758082
aF2.4361074545881163
aF1.4788747625948153
aF1.542307832218595
aaI0
aa(lp82
(lp83
F0.48744963299136912
aF0.064571044566876679
aF1.9788188704984782
aF2.0640848997375181
aF0.51026350975358192
aF0.30270803687941528
aaI0
aa(lp84
(lp85
F1.2570412530243678
aF0.89897750636337825
aF0.68819796567611813
aF1.7109717943234757
aF1.1742850484813632
aF1.2355828495893195
aaI0
aa(lp86
(lp87
F1.9906201968726269
aF2.4766203956566244
aF2.9011506604693307
aF1.5680527084092102
aF2.3404338987922815
aF2.4286639693850058
aaI0
aa(lp88
(lp89
F0.35069987610466768
aF1.0057410595011764
aF1.2903859172206955
aF1.8677701091639851
aF1.5476824324471403
aF2.7426415808815472
aaI0
aa(lp90
(lp91
F0.2402812059394257
aF2.7024295864183356
aF1.584034693208332
aF0.76095041716059852
aF1.815700286217377
aF2.7719528844191412
aaI0
aa(lp92
(lp93
F1.5851084015261616
aF2.6438914879095012
aF0.62111604722636993
aF0.33162136105668527
aF2.0441902214731917
aF0.1538615880527151
aaI0
aa(lp94
(lp95
F1.6676673182706758
aF2.0071497057368584
aF2.5987752232583343
aF1.9514118008531538
aF1.7997422661579092
aF0.33757397037138193
aaI0
aa(lp96
(lp97
F2.2005903984713933
aF0.71166826032794495
aF2.6436380643128192
aF1.3266987530295935
aF0.86481303749885918
aF1.698870179293984
aaI0
aa(lp98
(lp99
F0.48495103548580132
aF2.7547270784450033
aF2.8900235359704101
aF1.3628569882327684
aF2.9109678063860458
aF0.25577829774224425
aaI0
aa(lp100
(lp101
F0.030843070595526711
aF2.4113871070915298
aF2.3600641048535667
aF2.93452296922541
aF0.38435912760482727
aF1.1599526098851924
aaI0
aa.