(lp1
(lp2
(lp3
F0.68465453104496277
aF0.94260531164014205
aF0.36508564479295469
aF0.93110039116564935
aF0.29775596573416063
aF0.58689651054694214
aF0.17927396270617713
aF0.51647902174859417
aF0.89926429952844422
aaF-3.6200000000000001
aa(lp4
(lp5
F0.68465453104496277
aF0.94260531164014205
aF0.36508564479295469
aF0.87475604184813061
aF0.63860833196499112
aF0.88702083098916518
aF0.17167659261529766
aF0.99601968812032582
aF0.68833745842265037
aaI0
aa.