(lp1
(lp2
(lp3
F0.4200078637362249
aF2.5302256190606269
aF1.6757444110474191
aF0.32869722689120984
aF1.3755170555670684
aF0.86643244251856311
aaF0.13333333333333333
aa(lp4
(lp5
F1.6325354945330712
aF0.40099859076611055
aF0.40011218802875914
aF2.8868036490524416
aF1.2481131469768192
aF0.86853481439835645
aaF0.21666666666666667
aa(lp6
(lp7
F1.0695208062573105
aF2.7776501448919304
aF1.3759470950527486
aF2.8009107899292296
aF2.6527301586355296
aF1.6254560360521624
aaF0.066666666666666666
aa(lp8
(lp9
F1.6059839878886608
aF2.099264985406295
aF0.18564771772923749
aF2.2013821007829222
aF0.86031225695619018
aF2.3101990154379006
aaF0
aa(lp10
(lp11
F2.3025816412189206
aF2.2691164610565289
aF2.5429708123205073
aF2.9981946128937453
aF2.5897654066064844
aF0.7005735972204451
aaF0.13333333333333333
aa(lp12
(lp13
F1.5624108617201853
aF2.7947512282871783
aF0.38924255225860649
aF1.4702308256727008
aF2.4986085842532737
aF2.9430306101666046
aaF0.083333333333333329
aa(lp14
(lp15
F1.0602310740848797
aF2.4075001304845016
aF0.13742808735357281
aF2.8373338118811238
aF1.5370618360250536
aF2.6743344517210259
aaF0.10000000000000001
aa(lp16
(lp17
F2.4842813112554598
aF1.3505229962947687
aF1.4158622805564693
aF2.1624372878647544
aF1.9120728968976721
aF0.73916690259916451
aaF0.13333333333333333
aa(lp18
(lp19
F0.92562631465830836
aF0.89325649571263765
aF0.69499936600913925
aF2.7259045170876655
aF1.2079705287146474
aF1.080407565548902
aaF0.11666666666666667
aa(lp20
(lp21
F0.39784824441345534
aF2.5341364482717559
aF2.2575038103340246
aF0.76652913106193854
aF0.47826974184484383
aF1.6620981985552139
aaF0.14999999999999999
aa(lp22
(lp23
F2.1005379426632018
aF0.45017386777829715
aF1.1573169938750105
aF2.8145924904528998
aF0.18765867567952743
aF2.1585518457103521
aaF0.14999999999999999
aa(lp24
(lp25
F0.19079927181083367
aF2.4875910374541452
aF1.0827502656587666
aF1.8516723875131857
aF1.160515596405209
aF0.44909171535486325
aaF0.033333333333333333
aa(lp26
(lp27
F1.201216091428063
aF2.8096520949340209
aF2.6325885338939976
aF2.652340355176336
aF0.33738319016304474
aF2.9840707999186984
aaF0.34999999999999998
aa(lp28
(lp29
F0.61317240972053599
aF0.26405541774750885
aF1.3331139700595127
aF1.9675961865572202
aF2.2330373764326317
aF2.1722829959450785
aaF0.11666666666666667
aa(lp30
(lp31
F2.5776035367507166
aF0.18021920578702622
aF1.1406640516958726
aF2.2217125599881613
aF0.12096698647537929
aF0.013857603582277278
aaF0.033333333333333333
aa(lp32
(lp33
F1.0605450181321681
aF2.8244451731467128
aF0.54642675660111217
aF1.6512408232495088
aF0.90141891378018801
aF2.724746434116339
aaF0
aa(lp34
(lp35
F1.3476337180611266
aF0.77245124227457174
aF2.2704722399748851
aF1.8457472853823558
aF0.46902333449514044
aF1.8656971862159102
aaF0.066666666666666666
aa(lp36
(lp37
F2.2151418189235561
aF2.4559894729720604
aF0.27043702767310185
aF2.354191371420705
aF0.51147150809906872
aF1.7013858095458496
aaF0.33333333333333331
aa(lp38
(lp39
F0.84102967827965947
aF0.4268920469533527
aF2.4664398944797319
aF0.85081910269662542
aF2.715119163899339
aF1.1205612865588856
aaF0.13333333333333333
aa(lp40
(lp41
F0.71157680673049095
aF1.0597013917304059
aF2.7628971340980155
aF0.48519165225145178
aF1.362644333539542
aF2.0644864388124353
aaF0.14999999999999999
aa(lp42
(lp43
F2.7911411281740621
aF0.43795737113136834
aF0.9205182026633778
aF2.2589854476994713
aF2.3481036534450701
aF2.3360170182010065
aaF0.23333333333333334
aa(lp44
(lp45
F0.022600535581015047
aF1.8164653105149593
aF0.11148930445768723
aF1.8118401719071575
aF2.4432651366806213
aF2.2449924467821818
aaF0.10000000000000001
aa(lp46
(lp47
F0.51474296630781657
aF2.8323796665629035
aF0.98734057278101206
aF2.215908795465829
aF2.8203940179991562
aF0.27278395381478271
aaF0.18333333333333332
aa(lp48
(lp49
F0.60802300849321367
aF1.3804935595004628
aF1.3880088458722115
aF1.5664297741212425
aF1.8845678081998511
aF1.8776525896967791
aaF0.18333333333333332
aa(lp50
(lp51
F0.53257069880536567
aF2.4575010779502855
aF0.74540883247741196
aF2.3863815114086915
aF1.1244973368612174
aF0.54109853829901844
aaF0.10000000000000001
aa(lp52
(lp53
F0.6822420408437837
aF1.1987143839446341
aF2.5022107550199335
aF0.79343690542437939
aF1.694551211242787
aF1.3109659882886509
aaF0.11666666666666667
aa(lp54
(lp55
F1.2457976042171892
aF2.814057303694697
aF2.1997960852909744
aF2.0421357711647108
aF0.081160191840382367
aF2.3094521531055179
aaF0.066666666666666666
aa(lp56
(lp57
F1.7988569177455789
aF2.2618702868841893
aF2.0392463883731247
aF1.9679479961085171
aF2.114514130955496
aF2.6585060184576523
aaF0.16666666666666666
aa(lp58
(lp59
F1.5075972661999377
aF0.64214639699481635
aF0.57589381382938343
aF1.1097482535616909
aF2.3984162161629938
aF2.9262055976654668
aaF0.13333333333333333
aa(lp60
(lp61
F0.14995053090576915
aF1.8163733662483659
aF2.2888255461590208
aF1.0025082768989564
aF2.2662730481196167
aF0.091566683045419373
aaF0.28333333333333333
aa(lp62
(lp63
F1.4717393246403567
aF0.76588006619626392
aF1.061604144829454
aF1.9929796206210701
aF2.8065972583993308
aF2.1716656284817235
aaF0.033333333333333333
aa(lp64
(lp65
F0.37681318926163199
aF2.8713046146820305
aF2.0279657555378292
aF1.4066262091951129
aF0.75514965588907734
aF2.0159517447541901
aaI0
aa(lp66
(lp67
F0.6117208003488096
aF2.3014595701526792
aF1.8258361844330706
aF1.4269383750545581
aF1.4497871796929371
aF0.45516797640624873
aaI0
aa(lp68
(lp69
F1.8254828544937427
aF2.9719191078647027
aF1.4036686937148679
aF1.9167785356225835
aF1.738322084568924
aF0.55430159730482065
aaI0
aa(lp70
(lp71
F1.7564726959236521
aF2.7510074575798948
aF0.18258993941310564
aF0.59799217791828008
aF0.72016278493606711
aF2.7892499522322654
aaI0
aa(lp72
(lp73
F2.0629677217641547
aF0.15754535131144587
aF0.62179656185945287
aF2.0372973419011893
aF0.76989776889413675
aF0.42821563510613192
aaI0
aa(lp74
(lp75
F1.7671607338188819
aF0.15813396083984388
aF1.8383103414530488
aF2.2819660846737895
aF1.8500876990477759
aF1.9811410974683648
aaI0
aa(lp76
(lp77
F2.8976321270836323
aF2.1595503408961698
aF1.6023911437471143
aF1.6666500289905128
aF2.0404394750589079
aF0.73319590447857319
aaI0
aa(lp78
(lp79
F2.5075243024984148
aF1.0672296531527738
aF1.3551873569445192
aF0.84596657737485692
aF2.5316396628246163
aF2.4576675324765156
aaI0
aa(lp80
(lp81
F2.8158456257261824
aF0.90482332435941848
aF0.89493270461692231
aF2.9014620029208169
aF1.9521184090861059
aF0.83667678752959862
aaI0
aa(lp82
(lp83
F0.32004545144029051
aF2.3248811896326655
aF0.73682616036627135
aF1.3617519384450589
aF1.7646517411649734
aF1.2331525893079451
aaI0
aa(lp84
(lp85
F0.43075010828224303
aF2.0592036292772034
aF2.3905705315788861
aF1.5279024455696661
aF1.5202309151266664
aF1.9625160170953402
aaI0
aa(lp86
(lp87
F1.9356328434468626
aF0.17254647156041814
aF0.018649570740173926
aF2.138123797798964
aF2.3966327774507272
aF2.2093247107884859
aaI0
aa(lp88
(lp89
F0.044284311498147488
aF2.672566640464308
aF1.9506307582570164
aF1.8995225683958947
aF1.9598442161727931
aF1.3805147696196691
aaI0
aa(lp90
(lp91
F1.2617356466800906
aF0.29733389870201199
aF0.97090223398349185
aF0.83620153683674603
aF1.9391763628055199
aF2.7482894900302992
aaI0
aa(lp92
(lp93
F0.48886030417377768
aF2.5898154415431285
aF0.89123053405163122
aF1.585930238189291
aF2.5154866103014233
aF0.45831494605693657
aaI0
aa(lp94
(lp95
F1.621873086448355
aF0.17321481161854357
aF1.1027211816760585
aF0.23619555488454524
aF2.1299479604919958
aF0.47436928111135424
aaI0
aa(lp96
(lp97
F2.4026761352713053
aF2.9925303290758332
aF1.9431292534861726
aF1.2085433145735407
aF2.4669522072065546
aF0.62584568444823108
aaI0
aa(lp98
(lp99
F1.8249632215557587
aF0.90702258353090071
aF2.3413438899721406
aF2.2410738212098793
aF2.7592611485625054
aF0.78189311920849758
aaI0
aa(lp100
(lp101
F1.0798732634250658
aF1.5623243828882565
aF0.13925530598590097
aF0.79654319768232473
aF1.2493739498228327
aF2.4582932286994463
aaI0
aa.