(lp1
(lp2
F0.66000000000000003
aF0.47999999999999998
aF0.59999999999999998
aF0.17999999999999999
aF0.94999999999999996
aF0.16
aF0.94999999999999996
aF0.33000000000000002
aF0.37
aaF0.23999999999999999
a.