(lp1
(lp2
F0.69087468765157545
aF0.3388409619430599
aF0.21972357685001753
aF0.79310274285719073
aF0.53505597710309616
aF0.70783863720778883
aF0.48673387396311174
aF0.16795898211994131
aF0.00082963416306680582
aaF-0.020000000000000018
a.