(lp1
(lp2
F0.60316643253293345
aF0.26609602512060027
aF0.7950953033824536
aF0.75364849278191892
aF0.91246078977496925
aF0.5791552462974463
aF0.59992606329677867
aF0.30848729751605497
aF0.42079707074961481
aaF0.3600000000000001
a.