(lp1
(lp2
F0.43856436863747583
aF0.82820518539521903
aF0.3929110648105536
aF0.14871024262102572
aF0.74488843469733124
aF0.63428783093156793
aF0.096027024642709957
aF0.25115141492337434
aF0.62672544790758311
aa(lp3
F0.34398972006587281
aF0.49266104257136478
aF0.33828747320908759
aF0.79603375262440867
aF0.37568964257491522
aF0.14987860635840655
aF0.39610740532719912
aF0.88050692421379761
aF0.11161014443499084
aa(lp4
F0.46907284337146338
aF0.89668702731933425
aF0.1786935687974277
aF0.72284140468281699
aF0.72748476202091772
aF0.62159615365836762
aF0.23625135960913546
aF0.33141285117922725
aF0.0020594790863613932
aa(lp5
F0.02740557304750546
aF0.58188071428182919
aF0.86526995567809462
aF0.88760378948164453
aF0.70977903832200118
aF0.16188192407601865
aF0.36435918355288011
aF0.5099389837299465
aF0.37329179111672983
aa(lp6
F0.29321353934661287
aF0.081927501911924994
aF0.092738959921913833
aF0.460039787834428
aF0.96603192482740829
aF0.58123507954916687
aF0.088372223848355635
aF0.7094273059692161
aF0.95561606674648791
aa.