(lp1
(lp2
F0.38438264195418714
aF0.7446636689880165
aF0.14982233978075632
aF0.15769495314835646
aF0.069281479388039302
aF0.26311055429682284
aF0.88638242047242732
aF0.9907070868292599
aF0.94052410992923874
aaF-11.529999999999999
a.