(lp1
(lp2
F0.015189993870879381
aF0.97099535161423389
aF0.59413504733813727
aF0.35138825618166547
aF0.13277250546776487
aF0.48685081432303978
aF0.35773728427577323
aF0.61931032441419065
aF0.79924564581830126
aaF-19.099999999999998
a.